target datalayout = "e-m:e-p270:32:32-p271:32:32-p272:64:64-i64:64-i128:128-f80:128-n8:16:32:64-S128"
target triple = "x86_64-pc-linux-gnu"

@arcfour_mic_cksum.signature = internal constant [13 x i8] c"signaturekey\00", align 1

; Function Attrs: nounwind uwtable
define internal i32 @usage2arcfour(i32 noundef %0) #0 {
  %2 = alloca i32, align 4
  %3 = alloca i32, align 4
  store i32 %0, ptr %3, align 4
  %4 = load i32, ptr %3, align 4
  switch i32 %4, label %9 [
    i32 3, label %5
    i32 9, label %5
    i32 22, label %6
    i32 23, label %7
    i32 24, label %8
  ]

5:                                                ; preds = %1, %1
  store i32 8, ptr %2, align 4
  br label %10

6:                                                ; preds = %1
  store i32 13, ptr %2, align 4
  br label %10

7:                                                ; preds = %1
  store i32 15, ptr %2, align 4
  br label %10

8:                                                ; preds = %1
  store i32 0, ptr %2, align 4
  br label %10

9:                                                ; preds = %1
  store i32 0, ptr %2, align 4
  br label %10

10:                                               ; preds = %9, %8, %7, %6, %5
  %11 = load i32, ptr %2, align 4
  ret i32 %11
}

; Function Attrs: nounwind uwtable
define internal i32 @arcfour_mic_cksum(ptr noundef %0, i32 noundef %1, i32 noundef %2, ptr noundef %3, ptr noundef %4, i64 noundef %5, ptr noundef %6, i64 noundef %7, ptr noundef %8, i64 noundef %9) #0 {
  %11 = alloca i32, align 4
  %12 = alloca ptr, align 8
  %13 = alloca i32, align 4
  %14 = alloca i32, align 4
  %15 = alloca ptr, align 8
  %16 = alloca ptr, align 8
  %17 = alloca i64, align 8
  %18 = alloca ptr, align 8
  %19 = alloca i64, align 8
  %20 = alloca ptr, align 8
  %21 = alloca i64, align 8
  %22 = alloca [16 x i8], align 16
  %23 = alloca [4 x i8], align 1
  %24 = alloca [16 x i8], align 16
  %25 = alloca i32, align 4
  %26 = alloca [16 x i8], align 16
  %27 = alloca ptr, align 8
  store ptr %0, ptr %12, align 8
  store i32 %1, ptr %13, align 4
  store i32 %2, ptr %14, align 4
  store ptr %3, ptr %15, align 8
  store ptr %4, ptr %16, align 8
  store i64 %5, ptr %17, align 8
  store ptr %6, ptr %18, align 8
  store i64 %7, ptr %19, align 8
  store ptr %8, ptr %20, align 8
  store i64 %9, ptr %21, align 8
  %28 = load i32, ptr %14, align 4
  %29 = call i32 @usage2arcfour(i32 noundef %28)
  store i32 %29, ptr %25, align 4
  %30 = getelementptr inbounds [16 x i8], ptr %22, i64 0, i64 0
  %31 = load ptr, ptr %12, align 8
  %32 = load i32, ptr %13, align 4
  %33 = sext i32 %32 to i64
  %34 = call i32 @ws_hmac_buffer(i32 noundef 1, ptr noundef %30, ptr noundef @arcfour_mic_cksum.signature, i64 noundef 13, ptr noundef %31, i64 noundef %33)
  %35 = icmp ne i32 %34, 0
  br i1 %35, label %36, label %37

36:                                               ; preds = %10
  store i32 0, ptr %11, align 4
  br label %86

37:                                               ; preds = %10
  %38 = call i32 @gcry_md_open(ptr noundef %27, i32 noundef 1, i32 noundef 0)
  %39 = icmp ne i32 %38, 0
  br i1 %39, label %40, label %41

40:                                               ; preds = %37
  store i32 0, ptr %11, align 4
  br label %86

41:                                               ; preds = %37
  %42 = load i32, ptr %25, align 4
  %43 = ashr i32 %42, 0
  %44 = and i32 %43, 255
  %45 = trunc i32 %44 to i8
  %46 = getelementptr [4 x i8], ptr %23, i64 0, i64 0
  store i8 %45, ptr %46, align 1
  %47 = load i32, ptr %25, align 4
  %48 = ashr i32 %47, 8
  %49 = and i32 %48, 255
  %50 = trunc i32 %49 to i8
  %51 = getelementptr [4 x i8], ptr %23, i64 0, i64 1
  store i8 %50, ptr %51, align 1
  %52 = load i32, ptr %25, align 4
  %53 = ashr i32 %52, 16
  %54 = and i32 %53, 255
  %55 = trunc i32 %54 to i8
  %56 = getelementptr [4 x i8], ptr %23, i64 0, i64 2
  store i8 %55, ptr %56, align 1
  %57 = load i32, ptr %25, align 4
  %58 = ashr i32 %57, 24
  %59 = and i32 %58, 255
  %60 = trunc i32 %59 to i8
  %61 = getelementptr [4 x i8], ptr %23, i64 0, i64 3
  store i8 %60, ptr %61, align 1
  %62 = load ptr, ptr %27, align 8
  %63 = getelementptr inbounds [4 x i8], ptr %23, i64 0, i64 0
  call void @gcry_md_write(ptr noundef %62, ptr noundef %63, i64 noundef 4)
  %64 = load ptr, ptr %27, align 8
  %65 = load ptr, ptr %16, align 8
  %66 = load i64, ptr %17, align 8
  call void @gcry_md_write(ptr noundef %64, ptr noundef %65, i64 noundef %66)
  %67 = load ptr, ptr %27, align 8
  %68 = load ptr, ptr %18, align 8
  %69 = load i64, ptr %19, align 8
  call void @gcry_md_write(ptr noundef %67, ptr noundef %68, i64 noundef %69)
  %70 = load ptr, ptr %27, align 8
  %71 = load ptr, ptr %20, align 8
  %72 = load i64, ptr %21, align 8
  call void @gcry_md_write(ptr noundef %70, ptr noundef %71, i64 noundef %72)
  %73 = getelementptr inbounds [16 x i8], ptr %24, i64 0, i64 0
  %74 = load ptr, ptr %27, align 8
  %75 = call ptr @gcry_md_read(ptr noundef %74, i32 noundef 0)
  call void @llvm.memcpy.p0.p0.i64(ptr align 16 %73, ptr align 1 %75, i64 16, i1 false)
  %76 = load ptr, ptr %27, align 8
  call void @gcry_md_close(ptr noundef %76)
  %77 = getelementptr inbounds [16 x i8], ptr %26, i64 0, i64 0
  %78 = getelementptr inbounds [16 x i8], ptr %24, i64 0, i64 0
  %79 = getelementptr inbounds [16 x i8], ptr %22, i64 0, i64 0
  %80 = call i32 @ws_hmac_buffer(i32 noundef 1, ptr noundef %77, ptr noundef %78, i64 noundef 16, ptr noundef %79, i64 noundef 16)
  %81 = icmp ne i32 %80, 0
  br i1 %81, label %82, label %83

82:                                               ; preds = %41
  store i32 0, ptr %11, align 4
  br label %86

83:                                               ; preds = %41
  %84 = load ptr, ptr %15, align 8
  %85 = getelementptr inbounds [16 x i8], ptr %26, i64 0, i64 0
  call void @llvm.memcpy.p0.p0.i64(ptr align 1 %84, ptr align 16 %85, i64 8, i1 false)
  store i32 0, ptr %11, align 4
  br label %86

86:                                               ; preds = %83, %82, %40, %36
  %87 = load i32, ptr %11, align 4
  ret i32 %87
}